; Function Attrs: nounwind uwtable
define dso_local zeroext i1 @pgstat_lock_entry_shared(ptr noundef readonly captures(none) %0, i1 noundef zeroext %1) local_unnamed_addr #0 {
  %3 = getelementptr inbounds nuw i8, ptr %0, i64 8
  %4 = load ptr, ptr %3, align 8
  %5 = getelementptr inbounds nuw i8, ptr %4, i64 4
  br i1 %1, label %6, label %8

6:                                                ; preds = %2
  %7 = tail call zeroext i1 @LWLockConditionalAcquire(ptr noundef nonnull %5, i32 noundef 1) #15
  br label %10

8:                                                ; preds = %2
  %9 = tail call zeroext i1 @LWLockAcquire(ptr noundef nonnull %5, i32 noundef 1) #15
  br label %10

10:                                               ; preds = %8, %6
  %.0 = phi i1 [ %7, %6 ], [ true, %8 ]
  ret i1 %.0
}